target datalayout = "e-m:e-p270:32:32-p271:32:32-p272:64:64-i64:64-i128:128-f80:128-n8:16:32:64-S128"
target triple = "x86_64-pc-linux-gnu"

%struct.tm = type { i32, i32, i32, i32, i32, i32, i32, i32, i32, i64, ptr }

@.str.26 = private unnamed_addr constant [3 x i8] c"%T\00", align 1
@.str.27 = private unnamed_addr constant [15 x i8] c"*Invalid time*\00", align 1

; Function Attrs: nounwind uwtable
define hidden ptr @file_fmttime(ptr noundef %0, i64 noundef %1, i16 noundef zeroext %2) #0 {
  %4 = alloca ptr, align 8
  %5 = alloca ptr, align 8
  %6 = alloca i64, align 8
  %7 = alloca i16, align 2
  %8 = alloca %struct.tm, align 8
  %9 = alloca i32, align 4
  store ptr %0, ptr %5, align 8, !tbaa !22
  store i64 %1, ptr %6, align 8, !tbaa !20
  store i16 %2, ptr %7, align 2, !tbaa !35
  call void @llvm.lifetime.start.p0(i64 56, ptr %8) #8
  call void @llvm.memset.p0.i64(ptr align 8 %8, i8 0, i64 56, i1 false)
  %10 = load i16, ptr %7, align 2, !tbaa !35
  %11 = zext i16 %10 to i32
  %12 = and i32 %11, 31
  %13 = mul nsw i32 %12, 2
  %14 = getelementptr inbounds nuw %struct.tm, ptr %8, i32 0, i32 0
  store i32 %13, ptr %14, align 8, !tbaa !40
  %15 = load i16, ptr %7, align 2, !tbaa !35
  %16 = zext i16 %15 to i32
  %17 = ashr i32 %16, 5
  %18 = and i32 %17, 63
  %19 = getelementptr inbounds nuw %struct.tm, ptr %8, i32 0, i32 1
  store i32 %18, ptr %19, align 4, !tbaa !41
  %20 = load i16, ptr %7, align 2, !tbaa !35
  %21 = zext i16 %20 to i32
  %22 = ashr i32 %21, 11
  %23 = getelementptr inbounds nuw %struct.tm, ptr %8, i32 0, i32 2
  store i32 %22, ptr %23, align 8, !tbaa !42
  %24 = load ptr, ptr %5, align 8, !tbaa !22
  %25 = load i64, ptr %6, align 8, !tbaa !20
  %26 = call i64 @strftime(ptr noundef %24, i64 noundef %25, ptr noundef @.str.26, ptr noundef %8) #8
  %27 = icmp eq i64 %26, 0
  br i1 %27, label %28, label %29

28:                                               ; preds = %3
  br label %31

29:                                               ; preds = %3
  %30 = load ptr, ptr %5, align 8, !tbaa !22
  store ptr %30, ptr %4, align 8
  store i32 1, ptr %9, align 4
  br label %36

31:                                               ; preds = %28
  %32 = load ptr, ptr %5, align 8, !tbaa !22
  %33 = load i64, ptr %6, align 8, !tbaa !20
  %34 = call i64 @php_strlcpy(ptr noundef %32, ptr noundef @.str.27, i64 noundef %33)
  %35 = load ptr, ptr %5, align 8, !tbaa !22
  store ptr %35, ptr %4, align 8
  store i32 1, ptr %9, align 4
  br label %36

36:                                               ; preds = %31, %29
  call void @llvm.lifetime.end.p0(i64 56, ptr %8) #8
  %37 = load ptr, ptr %4, align 8
  ret ptr %37
}