; Function Attrs: nounwind uwtable
define hidden noundef ptr @file_fmttime(ptr noundef returned %0, i64 noundef %1, i16 noundef zeroext %2) local_unnamed_addr #4 {
  %4 = alloca %struct.tm, align 8
  call void @llvm.lifetime.start.p0(i64 56, ptr nonnull %4) #13
  %5 = getelementptr inbounds nuw i8, ptr %4, i64 8
  call void @llvm.memset.p0.i64(ptr noundef nonnull align 8 dereferenceable(56) %5, i8 0, i64 48, i1 false)
  %6 = zext i16 %2 to i32
  %7 = shl nuw nsw i32 %6, 1
  %8 = and i32 %7, 62
  store i32 %8, ptr %4, align 8, !tbaa !34
  %9 = lshr i32 %6, 5
  %10 = and i32 %9, 63
  %11 = getelementptr inbounds nuw i8, ptr %4, i64 4
  store i32 %10, ptr %11, align 4, !tbaa !35
  %12 = lshr i32 %6, 11
  %13 = getelementptr inbounds nuw i8, ptr %4, i64 8
  store i32 %12, ptr %13, align 8, !tbaa !36
  %14 = call i64 @strftime(ptr noundef %0, i64 noundef %1, ptr noundef nonnull @.str.26, ptr noundef nonnull %4) #13
  %15 = icmp eq i64 %14, 0
  br i1 %15, label %16, label %18

16:                                               ; preds = %3
  %17 = call i64 @php_strlcpy(ptr noundef %0, ptr noundef nonnull @.str.27, i64 noundef %1) #13
  br label %18

18:                                               ; preds = %3, %16
  call void @llvm.lifetime.end.p0(i64 56, ptr nonnull %4) #13
  ret ptr %0
}